; Function Attrs: nounwind uwtable
define void @Abc_NtkDontCareWinSweepLeafTfo_rec(ptr noundef readonly %0, i32 noundef %1, ptr noundef %2) local_unnamed_addr #0 {
  %4 = getelementptr i8, ptr %0, i64 20
  %.val = load i32, ptr %4, align 4
  %5 = and i32 %.val, 15
  %6 = add nsw i32 %5, -5
  %narrow.i = icmp ult i32 %6, -2
  br i1 %narrow.i, label %7, label %.critedge

7:                                                ; preds = %3
  %8 = lshr i32 %.val, 12
  %9 = icmp sgt i32 %8, %1
  %10 = icmp eq ptr %0, %2
  %or.cond = or i1 %10, %9
  br i1 %or.cond, label %.critedge, label %11

11:                                               ; preds = %7
  %12 = tail call fastcc i32 @Abc_NodeIsTravIdCurrent(ptr noundef nonnull %0)
  %.not18 = icmp eq i32 %12, 0
  br i1 %.not18, label %13, label %.critedge

13:                                               ; preds = %11
  %.val19 = load ptr, ptr %0, align 8, !tbaa !78
  %14 = getelementptr i8, ptr %0, i64 16
  %.val20 = load i32, ptr %14, align 8, !tbaa !81
  %15 = getelementptr inbounds nuw i8, ptr %.val19, i64 216
  %16 = load i32, ptr %15, align 8, !tbaa !82
  %17 = getelementptr inbounds nuw i8, ptr %.val19, i64 224
  %18 = add nsw i32 %.val20, 1
  %19 = getelementptr inbounds nuw i8, ptr %.val19, i64 228
  %20 = load i32, ptr %19, align 4, !tbaa !37
  %.not.i.not.i.i.i = icmp slt i32 %.val20, %20
  br i1 %.not.i.not.i.i.i, label %Abc_NodeSetTravIdCurrent.exit, label %21

21:                                               ; preds = %13
  %22 = load i32, ptr %17, align 8, !tbaa !39
  %23 = shl nsw i32 %22, 1
  %.not.i.i.i = icmp slt i32 %.val20, %23
  %.not.i.i.not.i.i.i = icmp sgt i32 %22, %.val20
  br i1 %.not.i.i.i, label %36, label %24

24:                                               ; preds = %21
  br i1 %.not.i.i.not.i.i.i, label %Vec_IntGrow.exit.i.i.i.i, label %25

25:                                               ; preds = %24
  %26 = getelementptr inbounds nuw i8, ptr %.val19, i64 232
  %27 = load ptr, ptr %26, align 8, !tbaa !40
  %.not9.i.i.i.i.i = icmp eq ptr %27, null
  %28 = sext i32 %18 to i64
  %29 = shl nsw i64 %28, 2
  br i1 %.not9.i.i.i.i.i, label %32, label %30

30:                                               ; preds = %25
  %31 = tail call ptr @realloc(ptr noundef nonnull %27, i64 noundef %29) #22
  br label %34

32:                                               ; preds = %25
  %33 = tail call noalias ptr @malloc(i64 noundef %29) #20
  br label %34

34:                                               ; preds = %32, %30
  %35 = phi ptr [ %31, %30 ], [ %33, %32 ]
  store ptr %35, ptr %26, align 8, !tbaa !40
  br label %Vec_IntGrow.exit.sink.split.i.i.i.i

36:                                               ; preds = %21
  br i1 %.not.i.i.not.i.i.i, label %Vec_IntGrow.exit.i.i.i.i, label %37

37:                                               ; preds = %36
  %38 = getelementptr inbounds nuw i8, ptr %.val19, i64 232
  %39 = load ptr, ptr %38, align 8, !tbaa !40
  %.not9.i21.i.i.i.i = icmp eq ptr %39, null
  %40 = sext i32 %23 to i64
  %41 = shl nsw i64 %40, 2
  br i1 %.not9.i21.i.i.i.i, label %44, label %42

42:                                               ; preds = %37
  %43 = tail call ptr @realloc(ptr noundef nonnull %39, i64 noundef %41) #22
  br label %46

44:                                               ; preds = %37
  %45 = tail call noalias ptr @malloc(i64 noundef %41) #20
  br label %46

46:                                               ; preds = %44, %42
  %47 = phi ptr [ %43, %42 ], [ %45, %44 ]
  store ptr %47, ptr %38, align 8, !tbaa !40
  br label %Vec_IntGrow.exit.sink.split.i.i.i.i

Vec_IntGrow.exit.sink.split.i.i.i.i:              ; preds = %46, %34
  %.sink.i.i.i.i = phi i32 [ %23, %46 ], [ %18, %34 ]
  store i32 %.sink.i.i.i.i, ptr %17, align 8, !tbaa !39
  %.pre.i.i.i = load i32, ptr %19, align 4, !tbaa !37
  br label %Vec_IntGrow.exit.i.i.i.i

Vec_IntGrow.exit.i.i.i.i:                         ; preds = %Vec_IntGrow.exit.sink.split.i.i.i.i, %36, %24
  %48 = phi i32 [ %.pre.i.i.i, %Vec_IntGrow.exit.sink.split.i.i.i.i ], [ %20, %36 ], [ %20, %24 ]
  %.not4.i.i.i = icmp sgt i32 %48, %.val20
  br i1 %.not4.i.i.i, label %._crit_edge.i.i.i.i, label %.lr.ph.i.i.i.i

.lr.ph.i.i.i.i:                                   ; preds = %Vec_IntGrow.exit.i.i.i.i
  %49 = getelementptr inbounds nuw i8, ptr %.val19, i64 232
  %50 = load ptr, ptr %49, align 8, !tbaa !40
  %51 = sext i32 %48 to i64
  %52 = shl nsw i64 %51, 2
  %scevgep.i.i.i.i = getelementptr i8, ptr %50, i64 %52
  %53 = sub i32 %.val20, %48
  %54 = zext i32 %53 to i64
  %55 = shl nuw nsw i64 %54, 2
  %56 = add nuw nsw i64 %55, 4
  tail call void @llvm.memset.p0.i64(ptr noundef nonnull align 4 dereferenceable(1) %scevgep.i.i.i.i, i8 0, i64 %56, i1 false), !tbaa !48
  br label %._crit_edge.i.i.i.i

._crit_edge.i.i.i.i:                              ; preds = %.lr.ph.i.i.i.i, %Vec_IntGrow.exit.i.i.i.i
  store i32 %18, ptr %19, align 4, !tbaa !37
  br label %Abc_NodeSetTravIdCurrent.exit

Abc_NodeSetTravIdCurrent.exit:                    ; preds = %13, %._crit_edge.i.i.i.i
  %57 = getelementptr i8, ptr %.val19, i64 232
  %.val.i.i.i = load ptr, ptr %57, align 8, !tbaa !40
  %58 = sext i32 %.val20 to i64
  %59 = getelementptr inbounds i32, ptr %.val.i.i.i, i64 %58
  store i32 %16, ptr %59, align 4, !tbaa !48
  %60 = getelementptr i8, ptr %0, i64 44
  %.val21 = load i32, ptr %60, align 4, !tbaa !94
  %61 = add i32 %.val21, -1
  %or.cond28 = icmp ult i32 %61, 100
  br i1 %or.cond28, label %.lr.ph, label %.critedge

.lr.ph:                                           ; preds = %Abc_NodeSetTravIdCurrent.exit
  %62 = getelementptr i8, ptr %0, i64 48
  br label %63

63:                                               ; preds = %.lr.ph, %63
  %indvars.iv = phi i64 [ 0, %.lr.ph ], [ %indvars.iv.next, %63 ]
  %.val23 = load ptr, ptr %0, align 8, !tbaa !78
  %.val24 = load ptr, ptr %62, align 8, !tbaa !95
  %64 = getelementptr i8, ptr %.val23, i64 32
  %.val23.val = load ptr, ptr %64, align 8, !tbaa !96
  %65 = getelementptr i8, ptr %.val23.val, i64 8
  %.val23.val.val = load ptr, ptr %65, align 8, !tbaa !24
  %66 = getelementptr inbounds nuw i32, ptr %.val24, i64 %indvars.iv
  %67 = load i32, ptr %66, align 4, !tbaa !48
  %68 = sext i32 %67 to i64
  %69 = getelementptr inbounds ptr, ptr %.val23.val.val, i64 %68
  %70 = load ptr, ptr %69, align 8, !tbaa !44
  tail call void @Abc_NtkDontCareWinSweepLeafTfo_rec(ptr noundef %70, i32 noundef %1, ptr noundef %2)
  %indvars.iv.next = add nuw nsw i64 %indvars.iv, 1
  %.val22 = load i32, ptr %60, align 4, !tbaa !94
  %71 = sext i32 %.val22 to i64
  %72 = icmp slt i64 %indvars.iv.next, %71
  br i1 %72, label %63, label %.critedge, !llvm.loop !97

.critedge:                                        ; preds = %63, %Abc_NodeSetTravIdCurrent.exit, %11, %3, %7
  ret void
}